; Function Attrs: mustprogress uwtable
define noundef i32 @_ZN6icu_756number4impl17ParsedPatternInfo11ParserState4nextEv(ptr nocapture noundef nonnull align 8 dereferenceable(12) %this) local_unnamed_addr #1 align 2 {
entry:
  %offset.i = getelementptr inbounds i8, ptr %this, i64 8
  %0 = load i32, ptr %offset.i, align 8
  %1 = load ptr, ptr %this, align 8
  %fUnion.i.i.i = getelementptr inbounds i8, ptr %1, i64 8
  %2 = load i16, ptr %fUnion.i.i.i, align 8
  %cmp.i.i.i = icmp slt i16 %2, 0
  %3 = ashr i16 %2, 5
  %shr.i.i.i = sext i16 %3 to i32
  %fLength.i.i = getelementptr inbounds i8, ptr %1, i64 12
  %4 = load i32, ptr %fLength.i.i, align 4
  %cond.i.i = select i1 %cmp.i.i.i, i32 %4, i32 %shr.i.i.i
  %cmp.i = icmp eq i32 %0, %cond.i.i
  br i1 %cmp.i, label %_ZN6icu_756number4impl17ParsedPatternInfo11ParserState4peekEv.exit.thread, label %_ZN6icu_756number4impl17ParsedPatternInfo11ParserState4peekEv.exit

_ZN6icu_756number4impl17ParsedPatternInfo11ParserState4peekEv.exit: ; preds = %entry
  %call4.i = tail call noundef i32 @_ZNK6icu_7513UnicodeString8char32AtEi(ptr noundef nonnull align 8 dereferenceable(64) %1, i32 noundef %0)
  %cmp = icmp ult i32 %call4.i, 65536
  %spec.select = select i1 %cmp, i32 1, i32 2
  %.pre = load i32, ptr %offset.i, align 8
  br label %_ZN6icu_756number4impl17ParsedPatternInfo11ParserState4peekEv.exit.thread

_ZN6icu_756number4impl17ParsedPatternInfo11ParserState4peekEv.exit.thread: ; preds = %_ZN6icu_756number4impl17ParsedPatternInfo11ParserState4peekEv.exit, %entry
  %5 = phi i32 [ %0, %entry ], [ %.pre, %_ZN6icu_756number4impl17ParsedPatternInfo11ParserState4peekEv.exit ]
  %retval.0.i4 = phi i32 [ -1, %entry ], [ %call4.i, %_ZN6icu_756number4impl17ParsedPatternInfo11ParserState4peekEv.exit ]
  %6 = phi i32 [ 2, %entry ], [ %spec.select, %_ZN6icu_756number4impl17ParsedPatternInfo11ParserState4peekEv.exit ]
  %add = add nsw i32 %5, %6
  store i32 %add, ptr %offset.i, align 8
  ret i32 %retval.0.i4
}